#include <math.h>
#include <stdio.h>
#include <stdlib.h>
#include <string.h>

int main()
{
char s[1000];
char *pr[200];
int i,k, n = 0;
gets(s);

	pr[n++] = s;
	for (i=0,k=1; s[i]; i=i+k,k=1) {
	
		if (s[i] == ' '){
		s[i] = 0;
			for(;s[i+k] == ' ';k++){		
			}
		
        pr[n++] = s+i+k;
	
		}
	}
for (i=0; i<n; i++) {
if (i > 0) {
printf(",");
}

printf("%d", strlen(pr[i]));


}
return 0;
}