; ModuleID = '28/1410.c'
source_filename = "28/1410.c"
target datalayout = "e-m:e-p270:32:32-p271:32:32-p272:64:64-i64:64-f80:128-n8:16:32:64-S128"
target triple = "x86_64-pc-linux-gnu"

@.str = private unnamed_addr constant [2 x i8] c",\00", align 1
@.str.1 = private unnamed_addr constant [3 x i8] c"%d\00", align 1

; Function Attrs: noinline nounwind uwtable
define dso_local i32 @main() #0 {
  %1 = alloca i32, align 4
  %2 = alloca [1000 x i8], align 16
  %3 = alloca [200 x i8*], align 16
  %4 = alloca i32, align 4
  %5 = alloca i32, align 4
  %6 = alloca i32, align 4
  store i32 0, i32* %1, align 4
  store i32 0, i32* %6, align 4
  %7 = getelementptr inbounds [1000 x i8], [1000 x i8]* %2, i64 0, i64 0
  %8 = call i32 (i8*, ...) bitcast (i32 (...)* @gets to i32 (i8*, ...)*)(i8* %7)
  %9 = getelementptr inbounds [1000 x i8], [1000 x i8]* %2, i64 0, i64 0
  %10 = load i32, i32* %6, align 4
  %11 = add nsw i32 %10, 1
  store i32 %11, i32* %6, align 4
  %12 = sext i32 %10 to i64
  %13 = getelementptr inbounds [200 x i8*], [200 x i8*]* %3, i64 0, i64 %12
  store i8* %9, i8** %13, align 8
  store i32 0, i32* %4, align 4
  store i32 1, i32* %5, align 4
  br label %14

14:                                               ; preds = %57, %0
  %15 = load i32, i32* %4, align 4
  %16 = sext i32 %15 to i64
  %17 = getelementptr inbounds [1000 x i8], [1000 x i8]* %2, i64 0, i64 %16
  %18 = load i8, i8* %17, align 1
  %19 = icmp ne i8 %18, 0
  br i1 %19, label %20, label %61

20:                                               ; preds = %14
  %21 = load i32, i32* %4, align 4
  %22 = sext i32 %21 to i64
  %23 = getelementptr inbounds [1000 x i8], [1000 x i8]* %2, i64 0, i64 %22
  %24 = load i8, i8* %23, align 1
  %25 = sext i8 %24 to i32
  %26 = icmp eq i32 %25, 32
  br i1 %26, label %27, label %56

27:                                               ; preds = %20
  %28 = load i32, i32* %4, align 4
  %29 = sext i32 %28 to i64
  %30 = getelementptr inbounds [1000 x i8], [1000 x i8]* %2, i64 0, i64 %29
  store i8 0, i8* %30, align 1
  br label %31

31:                                               ; preds = %41, %27
  %32 = load i32, i32* %4, align 4
  %33 = load i32, i32* %5, align 4
  %34 = add nsw i32 %32, %33
  %35 = sext i32 %34 to i64
  %36 = getelementptr inbounds [1000 x i8], [1000 x i8]* %2, i64 0, i64 %35
  %37 = load i8, i8* %36, align 1
  %38 = sext i8 %37 to i32
  %39 = icmp eq i32 %38, 32
  br i1 %39, label %40, label %44

40:                                               ; preds = %31
  br label %41

41:                                               ; preds = %40
  %42 = load i32, i32* %5, align 4
  %43 = add nsw i32 %42, 1
  store i32 %43, i32* %5, align 4
  br label %31

44:                                               ; preds = %31
  %45 = getelementptr inbounds [1000 x i8], [1000 x i8]* %2, i64 0, i64 0
  %46 = load i32, i32* %4, align 4
  %47 = sext i32 %46 to i64
  %48 = getelementptr inbounds i8, i8* %45, i64 %47
  %49 = load i32, i32* %5, align 4
  %50 = sext i32 %49 to i64
  %51 = getelementptr inbounds i8, i8* %48, i64 %50
  %52 = load i32, i32* %6, align 4
  %53 = add nsw i32 %52, 1
  store i32 %53, i32* %6, align 4
  %54 = sext i32 %52 to i64
  %55 = getelementptr inbounds [200 x i8*], [200 x i8*]* %3, i64 0, i64 %54
  store i8* %51, i8** %55, align 8
  br label %56

56:                                               ; preds = %44, %20
  br label %57

57:                                               ; preds = %56
  %58 = load i32, i32* %4, align 4
  %59 = load i32, i32* %5, align 4
  %60 = add nsw i32 %58, %59
  store i32 %60, i32* %4, align 4
  store i32 1, i32* %5, align 4
  br label %14

61:                                               ; preds = %14
  store i32 0, i32* %4, align 4
  br label %62

62:                                               ; preds = %78, %61
  %63 = load i32, i32* %4, align 4
  %64 = load i32, i32* %6, align 4
  %65 = icmp slt i32 %63, %64
  br i1 %65, label %66, label %81

66:                                               ; preds = %62
  %67 = load i32, i32* %4, align 4
  %68 = icmp sgt i32 %67, 0
  br i1 %68, label %69, label %71

69:                                               ; preds = %66
  %70 = call i32 (i8*, ...) @printf(i8* getelementptr inbounds ([2 x i8], [2 x i8]* @.str, i64 0, i64 0))
  br label %71

71:                                               ; preds = %69, %66
  %72 = load i32, i32* %4, align 4
  %73 = sext i32 %72 to i64
  %74 = getelementptr inbounds [200 x i8*], [200 x i8*]* %3, i64 0, i64 %73
  %75 = load i8*, i8** %74, align 8
  %76 = call i64 @strlen(i8* %75) #3
  %77 = call i32 (i8*, ...) @printf(i8* getelementptr inbounds ([3 x i8], [3 x i8]* @.str.1, i64 0, i64 0), i64 %76)
  br label %78

78:                                               ; preds = %71
  %79 = load i32, i32* %4, align 4
  %80 = add nsw i32 %79, 1
  store i32 %80, i32* %4, align 4
  br label %62

81:                                               ; preds = %62
  ret i32 0
}

declare dso_local i32 @gets(...) #1

declare dso_local i32 @printf(i8*, ...) #1

; Function Attrs: nounwind readonly
declare dso_local i64 @strlen(i8*) #2


!llvm.module.flags = !{!0}
!llvm.ident = !{!1}

!0 = !{i32 1, !"wchar_size", i32 4}
!1 = !{!"clang version 10.0.0-4ubuntu1 "}
